target datalayout = "e-m:e-p270:32:32-p271:32:32-p272:64:64-i64:64-i128:128-f80:128-n8:16:32:64-S128"
target triple = "x86_64-pc-linux-gnu"

%"class.std::vector.13" = type { %"struct.std::_Vector_base.14" }
%"struct.std::_Vector_base.14" = type { %"struct.std::_Vector_base<int, std::allocator<int>>::_Vector_impl" }
%"struct.std::_Vector_base<int, std::allocator<int>>::_Vector_impl" = type { %"struct.std::_Vector_base<int, std::allocator<int>>::_Vector_impl_data" }
%"struct.std::_Vector_base<int, std::allocator<int>>::_Vector_impl_data" = type { ptr, ptr, ptr }
%"class.gmx::IOptionValueStore" = type { ptr }
%"class.gmx::internal::EnumIndexStore.118" = type { %"class.gmx::IOptionValueStore", %"class.std::vector.13", ptr, ptr }
%"struct.std::_Vector_base.120" = type { %"struct.std::_Vector_base<gmx::analysismodules::(anonymous namespace)::PdbAtomsSelection, std::allocator<gmx::analysismodules::(anonymous namespace)::PdbAtomsSelection>>::_Vector_impl" }
%"struct.std::_Vector_base<gmx::analysismodules::(anonymous namespace)::PdbAtomsSelection, std::allocator<gmx::analysismodules::(anonymous namespace)::PdbAtomsSelection>>::_Vector_impl" = type { %"struct.std::_Vector_base<gmx::analysismodules::(anonymous namespace)::PdbAtomsSelection, std::allocator<gmx::analysismodules::(anonymous namespace)::PdbAtomsSelection>>::_Vector_impl_data" }
%"struct.std::_Vector_base<gmx::analysismodules::(anonymous namespace)::PdbAtomsSelection, std::allocator<gmx::analysismodules::(anonymous namespace)::PdbAtomsSelection>>::_Vector_impl_data" = type { ptr, ptr, ptr }

; Function Attrs: mustprogress nounwind uwtable
define internal void @_ZNSt12_Destroy_auxILb1EE9__destroyIPN3gmx15analysismodules12_GLOBAL__N_117PdbAtomsSelectionEEEvT_S7_(ptr noundef %0, ptr noundef %1) #3 align 2 {
  %3 = alloca ptr, align 8
  %4 = alloca ptr, align 8
  store ptr %0, ptr %3, align 8
  store ptr %1, ptr %4, align 8
  ret void
}

; Function Attrs: mustprogress nounwind uwtable
define linkonce_odr void @_ZNSt12_Destroy_auxILb1EE9__destroyIPiEEvT_S3_(ptr noundef %0, ptr noundef %1) #3 comdat align 2 {
  %3 = alloca ptr, align 8
  %4 = alloca ptr, align 8
  store ptr %0, ptr %3, align 8
  store ptr %1, ptr %4, align 8
  ret void
}

; Function Attrs: mustprogress uwtable
define internal void @_ZSt8_DestroyIPN3gmx15analysismodules12_GLOBAL__N_117PdbAtomsSelectionEEvT_S5_(ptr noundef %0, ptr noundef %1) #0 {
  %3 = alloca ptr, align 8
  %4 = alloca ptr, align 8
  store ptr %0, ptr %3, align 8
  store ptr %1, ptr %4, align 8
  %5 = load ptr, ptr %3, align 8
  %6 = load ptr, ptr %4, align 8
  call void @_ZNSt12_Destroy_auxILb1EE9__destroyIPN3gmx15analysismodules12_GLOBAL__N_117PdbAtomsSelectionEEEvT_S7_(ptr noundef %5, ptr noundef %6)
  ret void
}

; Function Attrs: mustprogress uwtable
define linkonce_odr void @_ZSt8_DestroyIPiEvT_S1_(ptr noundef %0, ptr noundef %1) #0 comdat {
  %3 = alloca ptr, align 8
  %4 = alloca ptr, align 8
  store ptr %0, ptr %3, align 8
  store ptr %1, ptr %4, align 8
  %5 = load ptr, ptr %3, align 8
  %6 = load ptr, ptr %4, align 8
  call void @_ZNSt12_Destroy_auxILb1EE9__destroyIPiEEvT_S3_(ptr noundef %5, ptr noundef %6)
  ret void
}

; Function Attrs: mustprogress uwtable
define internal void @_ZSt8_DestroyIPN3gmx15analysismodules12_GLOBAL__N_117PdbAtomsSelectionES3_EvT_S5_RSaIT0_E(ptr noundef %0, ptr noundef %1, ptr noundef nonnull align 1 dereferenceable(1) %2) #0 {
  %4 = alloca ptr, align 8
  %5 = alloca ptr, align 8
  %6 = alloca ptr, align 8
  store ptr %0, ptr %4, align 8
  store ptr %1, ptr %5, align 8
  store ptr %2, ptr %6, align 8
  %7 = load ptr, ptr %4, align 8
  %8 = load ptr, ptr %5, align 8
  call void @_ZSt8_DestroyIPN3gmx15analysismodules12_GLOBAL__N_117PdbAtomsSelectionEEvT_S5_(ptr noundef %7, ptr noundef %8)
  ret void
}

; Function Attrs: mustprogress nounwind uwtable
define internal noundef nonnull align 1 dereferenceable(1) ptr @_ZNSt12_Vector_baseIN3gmx15analysismodules12_GLOBAL__N_117PdbAtomsSelectionESaIS3_EE19_M_get_Tp_allocatorEv(ptr noundef nonnull align 8 dereferenceable(24) %0) #3 align 2 {
  %2 = alloca ptr, align 8
  store ptr %0, ptr %2, align 8
  %3 = load ptr, ptr %2, align 8
  %4 = getelementptr inbounds %"struct.std::_Vector_base.120", ptr %3, i32 0, i32 0
  ret ptr %4
}

; Function Attrs: noreturn nounwind uwtable
define linkonce_odr hidden void @__clang_call_terminate(ptr noundef %0) #6 comdat {
  %2 = call ptr @__cxa_begin_catch(ptr %0) #13
  call void @_ZSt9terminatev() #15
  unreachable
}

; Function Attrs: mustprogress uwtable
define linkonce_odr void @_ZSt8_DestroyIPiiEvT_S1_RSaIT0_E(ptr noundef %0, ptr noundef %1, ptr noundef nonnull align 1 dereferenceable(1) %2) #0 comdat {
  %4 = alloca ptr, align 8
  %5 = alloca ptr, align 8
  %6 = alloca ptr, align 8
  store ptr %0, ptr %4, align 8
  store ptr %1, ptr %5, align 8
  store ptr %2, ptr %6, align 8
  %7 = load ptr, ptr %4, align 8
  %8 = load ptr, ptr %5, align 8
  call void @_ZSt8_DestroyIPiEvT_S1_(ptr noundef %7, ptr noundef %8)
  ret void
}

; Function Attrs: mustprogress nounwind uwtable
define linkonce_odr noundef nonnull align 1 dereferenceable(1) ptr @_ZNSt12_Vector_baseIiSaIiEE19_M_get_Tp_allocatorEv(ptr noundef nonnull align 8 dereferenceable(24) %0) #3 comdat align 2 {
  %2 = alloca ptr, align 8
  store ptr %0, ptr %2, align 8
  %3 = load ptr, ptr %2, align 8
  %4 = getelementptr inbounds %"struct.std::_Vector_base.14", ptr %3, i32 0, i32 0
  ret ptr %4
}

; Function Attrs: mustprogress nounwind uwtable
define internal void @_ZNSt6vectorIN3gmx15analysismodules12_GLOBAL__N_117PdbAtomsSelectionESaIS3_EE15_M_erase_at_endEPS3_(ptr noundef nonnull align 8 dereferenceable(24) %0, ptr noundef %1) #3 align 2 personality ptr @__gxx_personality_v0 {
  %3 = alloca ptr, align 8
  %4 = alloca ptr, align 8
  %5 = alloca i64, align 8
  store ptr %0, ptr %3, align 8
  store ptr %1, ptr %4, align 8
  %6 = load ptr, ptr %3, align 8
  %7 = getelementptr inbounds %"struct.std::_Vector_base.120", ptr %6, i32 0, i32 0
  %8 = getelementptr inbounds %"struct.std::_Vector_base<gmx::analysismodules::(anonymous namespace)::PdbAtomsSelection, std::allocator<gmx::analysismodules::(anonymous namespace)::PdbAtomsSelection>>::_Vector_impl_data", ptr %7, i32 0, i32 1
  %9 = load ptr, ptr %8, align 8
  %10 = load ptr, ptr %4, align 8
  %11 = ptrtoint ptr %9 to i64
  %12 = ptrtoint ptr %10 to i64
  %13 = sub i64 %11, %12
  %14 = sdiv exact i64 %13, 4
  store i64 %14, ptr %5, align 8
  %15 = load i64, ptr %5, align 8
  %16 = icmp ne i64 %15, 0
  br i1 %16, label %17, label %27

17:                                               ; preds = %2
  %18 = load ptr, ptr %4, align 8
  %19 = getelementptr inbounds %"struct.std::_Vector_base.120", ptr %6, i32 0, i32 0
  %20 = getelementptr inbounds %"struct.std::_Vector_base<gmx::analysismodules::(anonymous namespace)::PdbAtomsSelection, std::allocator<gmx::analysismodules::(anonymous namespace)::PdbAtomsSelection>>::_Vector_impl_data", ptr %19, i32 0, i32 1
  %21 = load ptr, ptr %20, align 8
  %22 = call noundef nonnull align 1 dereferenceable(1) ptr @_ZNSt12_Vector_baseIN3gmx15analysismodules12_GLOBAL__N_117PdbAtomsSelectionESaIS3_EE19_M_get_Tp_allocatorEv(ptr noundef nonnull align 8 dereferenceable(24) %6) #13
  invoke void @_ZSt8_DestroyIPN3gmx15analysismodules12_GLOBAL__N_117PdbAtomsSelectionES3_EvT_S5_RSaIT0_E(ptr noundef %18, ptr noundef %21, ptr noundef nonnull align 1 dereferenceable(1) %22)
          to label %23 unwind label %28

23:                                               ; preds = %17
  %24 = load ptr, ptr %4, align 8
  %25 = getelementptr inbounds %"struct.std::_Vector_base.120", ptr %6, i32 0, i32 0
  %26 = getelementptr inbounds %"struct.std::_Vector_base<gmx::analysismodules::(anonymous namespace)::PdbAtomsSelection, std::allocator<gmx::analysismodules::(anonymous namespace)::PdbAtomsSelection>>::_Vector_impl_data", ptr %25, i32 0, i32 1
  store ptr %24, ptr %26, align 8
  br label %27

27:                                               ; preds = %23, %2
  ret void

28:                                               ; preds = %17
  %29 = landingpad { ptr, i32 }
          catch ptr null
  %30 = extractvalue { ptr, i32 } %29, 0
  call void @__clang_call_terminate(ptr %30) #15
  unreachable
}

; Function Attrs: mustprogress nounwind uwtable
define linkonce_odr void @_ZNSt6vectorIiSaIiEE15_M_erase_at_endEPi(ptr noundef nonnull align 8 dereferenceable(24) %0, ptr noundef %1) #3 comdat align 2 personality ptr @__gxx_personality_v0 {
  %3 = alloca ptr, align 8
  %4 = alloca ptr, align 8
  %5 = alloca i64, align 8
  store ptr %0, ptr %3, align 8
  store ptr %1, ptr %4, align 8
  %6 = load ptr, ptr %3, align 8
  %7 = getelementptr inbounds %"struct.std::_Vector_base.14", ptr %6, i32 0, i32 0
  %8 = getelementptr inbounds %"struct.std::_Vector_base<int, std::allocator<int>>::_Vector_impl_data", ptr %7, i32 0, i32 1
  %9 = load ptr, ptr %8, align 8
  %10 = load ptr, ptr %4, align 8
  %11 = ptrtoint ptr %9 to i64
  %12 = ptrtoint ptr %10 to i64
  %13 = sub i64 %11, %12
  %14 = sdiv exact i64 %13, 4
  store i64 %14, ptr %5, align 8
  %15 = load i64, ptr %5, align 8
  %16 = icmp ne i64 %15, 0
  br i1 %16, label %17, label %27

17:                                               ; preds = %2
  %18 = load ptr, ptr %4, align 8
  %19 = getelementptr inbounds %"struct.std::_Vector_base.14", ptr %6, i32 0, i32 0
  %20 = getelementptr inbounds %"struct.std::_Vector_base<int, std::allocator<int>>::_Vector_impl_data", ptr %19, i32 0, i32 1
  %21 = load ptr, ptr %20, align 8
  %22 = call noundef nonnull align 1 dereferenceable(1) ptr @_ZNSt12_Vector_baseIiSaIiEE19_M_get_Tp_allocatorEv(ptr noundef nonnull align 8 dereferenceable(24) %6) #13
  invoke void @_ZSt8_DestroyIPiiEvT_S1_RSaIT0_E(ptr noundef %18, ptr noundef %21, ptr noundef nonnull align 1 dereferenceable(1) %22)
          to label %23 unwind label %28

23:                                               ; preds = %17
  %24 = load ptr, ptr %4, align 8
  %25 = getelementptr inbounds %"struct.std::_Vector_base.14", ptr %6, i32 0, i32 0
  %26 = getelementptr inbounds %"struct.std::_Vector_base<int, std::allocator<int>>::_Vector_impl_data", ptr %25, i32 0, i32 1
  store ptr %24, ptr %26, align 8
  br label %27

27:                                               ; preds = %23, %2
  ret void

28:                                               ; preds = %17
  %29 = landingpad { ptr, i32 }
          catch ptr null
  %30 = extractvalue { ptr, i32 } %29, 0
  call void @__clang_call_terminate(ptr %30) #15
  unreachable
}

; Function Attrs: mustprogress nounwind uwtable
define internal void @_ZNSt6vectorIN3gmx15analysismodules12_GLOBAL__N_117PdbAtomsSelectionESaIS3_EE5clearEv(ptr noundef nonnull align 8 dereferenceable(24) %0) #3 align 2 {
  %2 = alloca ptr, align 8
  store ptr %0, ptr %2, align 8
  %3 = load ptr, ptr %2, align 8
  %4 = getelementptr inbounds %"struct.std::_Vector_base.120", ptr %3, i32 0, i32 0
  %5 = getelementptr inbounds %"struct.std::_Vector_base<gmx::analysismodules::(anonymous namespace)::PdbAtomsSelection, std::allocator<gmx::analysismodules::(anonymous namespace)::PdbAtomsSelection>>::_Vector_impl_data", ptr %4, i32 0, i32 0
  %6 = load ptr, ptr %5, align 8
  call void @_ZNSt6vectorIN3gmx15analysismodules12_GLOBAL__N_117PdbAtomsSelectionESaIS3_EE15_M_erase_at_endEPS3_(ptr noundef nonnull align 8 dereferenceable(24) %3, ptr noundef %6) #13
  ret void
}

; Function Attrs: mustprogress nounwind uwtable
define linkonce_odr void @_ZNSt6vectorIiSaIiEE5clearEv(ptr noundef nonnull align 8 dereferenceable(24) %0) #3 comdat align 2 {
  %2 = alloca ptr, align 8
  store ptr %0, ptr %2, align 8
  %3 = load ptr, ptr %2, align 8
  %4 = getelementptr inbounds %"struct.std::_Vector_base.14", ptr %3, i32 0, i32 0
  %5 = getelementptr inbounds %"struct.std::_Vector_base<int, std::allocator<int>>::_Vector_impl_data", ptr %4, i32 0, i32 0
  %6 = load ptr, ptr %5, align 8
  call void @_ZNSt6vectorIiSaIiEE15_M_erase_at_endEPi(ptr noundef nonnull align 8 dereferenceable(24) %3, ptr noundef %6) #13
  ret void
}

; Function Attrs: mustprogress nounwind uwtable
define internal void @_ZN3gmx8internal14EnumIndexStoreINS_15analysismodules12_GLOBAL__N_117PdbAtomsSelectionEE5clearEv(ptr noundef nonnull align 8 dereferenceable(48) %0) unnamed_addr #3 align 2 {
  %2 = alloca ptr, align 8
  store ptr %0, ptr %2, align 8
  %3 = load ptr, ptr %2, align 8
  %4 = getelementptr inbounds %"class.gmx::internal::EnumIndexStore.118", ptr %3, i32 0, i32 1
  call void @_ZNSt6vectorIiSaIiEE5clearEv(ptr noundef nonnull align 8 dereferenceable(24) %4) #13
  %5 = getelementptr inbounds %"class.gmx::internal::EnumIndexStore.118", ptr %3, i32 0, i32 3
  %6 = load ptr, ptr %5, align 8
  %7 = icmp ne ptr %6, null
  br i1 %7, label %8, label %11

8:                                                ; preds = %1
  %9 = getelementptr inbounds %"class.gmx::internal::EnumIndexStore.118", ptr %3, i32 0, i32 3
  %10 = load ptr, ptr %9, align 8
  call void @_ZNSt6vectorIN3gmx15analysismodules12_GLOBAL__N_117PdbAtomsSelectionESaIS3_EE5clearEv(ptr noundef nonnull align 8 dereferenceable(24) %10) #13
  br label %11

11:                                               ; preds = %8, %1
  ret void
}