; Function Attrs: mustprogress nofree norecurse nosync nounwind willreturn memory(readwrite, inaccessiblemem: none) uwtable
define internal void @_ZN3gmx8internal14EnumIndexStoreINS_15analysismodules12_GLOBAL__N_117PdbAtomsSelectionEE5clearEv(ptr nocapture noundef nonnull align 8 dereferenceable(48) %0) unnamed_addr #9 align 2 personality ptr @__gxx_personality_v0 {
  %2 = getelementptr inbounds i8, ptr %0, i64 8
  %3 = load ptr, ptr %2, align 8
  %4 = getelementptr inbounds i8, ptr %0, i64 16
  %5 = load ptr, ptr %4, align 8
  %.not.i.i = icmp eq ptr %5, %3
  br i1 %.not.i.i, label %_ZNSt6vectorIiSaIiEE5clearEv.exit, label %6

6:                                                ; preds = %1
  store ptr %3, ptr %4, align 8
  br label %_ZNSt6vectorIiSaIiEE5clearEv.exit

_ZNSt6vectorIiSaIiEE5clearEv.exit:                ; preds = %1, %6
  %7 = getelementptr inbounds i8, ptr %0, i64 40
  %8 = load ptr, ptr %7, align 8
  %.not = icmp eq ptr %8, null
  br i1 %.not, label %_ZNSt6vectorIN3gmx15analysismodules12_GLOBAL__N_117PdbAtomsSelectionESaIS3_EE5clearEv.exit, label %9

9:                                                ; preds = %_ZNSt6vectorIiSaIiEE5clearEv.exit
  %10 = load ptr, ptr %8, align 8
  %11 = getelementptr inbounds i8, ptr %8, i64 8
  %12 = load ptr, ptr %11, align 8
  %.not.i.i1 = icmp eq ptr %12, %10
  br i1 %.not.i.i1, label %_ZNSt6vectorIN3gmx15analysismodules12_GLOBAL__N_117PdbAtomsSelectionESaIS3_EE5clearEv.exit, label %13

13:                                               ; preds = %9
  store ptr %10, ptr %11, align 8
  br label %_ZNSt6vectorIN3gmx15analysismodules12_GLOBAL__N_117PdbAtomsSelectionESaIS3_EE5clearEv.exit

_ZNSt6vectorIN3gmx15analysismodules12_GLOBAL__N_117PdbAtomsSelectionESaIS3_EE5clearEv.exit: ; preds = %13, %9, %_ZNSt6vectorIiSaIiEE5clearEv.exit
  ret void
}